target datalayout = "e-m:e-p270:32:32-p271:32:32-p272:64:64-i64:64-i128:128-f80:128-n8:16:32:64-S128"
target triple = "x86_64-pc-linux-gnu"

$__clang_call_terminate = comdat any

; Function Attrs: mustprogress nounwind uwtable
define dso_local i32 @__cxa_thread_atexit(ptr noundef %0, ptr noundef %1, ptr noundef %2) #0 personality ptr @__gxx_personality_v0 {
  %4 = alloca ptr, align 8
  %5 = alloca ptr, align 8
  %6 = alloca ptr, align 8
  store ptr %0, ptr %4, align 8, !tbaa !5
  store ptr %1, ptr %5, align 8, !tbaa !5
  store ptr %2, ptr %6, align 8, !tbaa !5
  %7 = load ptr, ptr %4, align 8, !tbaa !5
  %8 = load ptr, ptr %5, align 8, !tbaa !5
  %9 = load ptr, ptr %6, align 8, !tbaa !5
  %10 = invoke i32 @__cxa_thread_atexit_impl(ptr noundef %7, ptr noundef %8, ptr noundef %9)
          to label %11 unwind label %12

11:                                               ; preds = %3
  ret i32 %10

12:                                               ; preds = %3
  %13 = landingpad { ptr, i32 }
          catch ptr null
  %14 = extractvalue { ptr, i32 } %13, 0
  call void @__clang_call_terminate(ptr %14) #3
  unreachable
}

declare i32 @__cxa_thread_atexit_impl(ptr noundef, ptr noundef, ptr noundef) #1

declare i32 @__gxx_personality_v0(...)

; Function Attrs: noinline noreturn nounwind uwtable
define linkonce_odr hidden void @__clang_call_terminate(ptr noundef %0) #2 comdat {
  %2 = call ptr @__cxa_begin_catch(ptr %0) #4
  call void @_ZSt9terminatev() #3
  unreachable
}

declare ptr @__cxa_begin_catch(ptr)

declare void @_ZSt9terminatev()


!llvm.linker.options = !{}
!llvm.dependent-libraries = !{!0}
!llvm.module.flags = !{!1, !2, !3, !4}

!0 = !{!"pthread"}
!1 = !{i32 1, !"wchar_size", i32 4}
!2 = !{i32 8, !"PIC Level", i32 2}
!3 = !{i32 7, !"PIE Level", i32 2}
!4 = !{i32 7, !"uwtable", i32 2}
!5 = !{!6, !6, i64 0}
!6 = !{!"any pointer", !7, i64 0}
!7 = !{!"omnipotent char", !8, i64 0}
!8 = !{!"Simple C++ TBAA"}
