; ModuleID = 'bench/libcxx/original/cxa_thread_atexit.ll'
source_filename = "bench/libcxx/original/cxa_thread_atexit.ll"
target datalayout = "e-m:e-p270:32:32-p271:32:32-p272:64:64-i64:64-i128:128-f80:128-n8:16:32:64-S128"
target triple = "x86_64-pc-linux-gnu"

$__clang_call_terminate = comdat any

; Function Attrs: mustprogress nounwind uwtable
define dso_local i32 @__cxa_thread_atexit(ptr noundef %0, ptr noundef %1, ptr noundef %2) local_unnamed_addr #0 personality ptr @__gxx_personality_v0 {
  %4 = invoke i32 @__cxa_thread_atexit_impl(ptr noundef %0, ptr noundef %1, ptr noundef %2)
          to label %5 unwind label %6

5:                                                ; preds = %3
  ret i32 %4

6:                                                ; preds = %3
  %7 = landingpad { ptr, i32 }
          catch ptr null
  %8 = extractvalue { ptr, i32 } %7, 0
  tail call void @__clang_call_terminate(ptr %8) #4
  unreachable
}

declare i32 @__cxa_thread_atexit_impl(ptr noundef, ptr noundef, ptr noundef) local_unnamed_addr #1

declare i32 @__gxx_personality_v0(...)

; Function Attrs: noinline noreturn nounwind uwtable
define linkonce_odr hidden void @__clang_call_terminate(ptr noundef %0) local_unnamed_addr #2 comdat {
  %2 = tail call ptr @__cxa_begin_catch(ptr %0) #5
  tail call void @_ZSt9terminatev() #4
  unreachable
}

declare ptr @__cxa_begin_catch(ptr) local_unnamed_addr

; Function Attrs: cold nofree noreturn
declare void @_ZSt9terminatev() local_unnamed_addr #3


!llvm.linker.options = !{}
!llvm.dependent-libraries = !{!0}
!llvm.module.flags = !{!1, !2, !3, !4}

!0 = !{!"pthread"}
!1 = !{i32 1, !"wchar_size", i32 4}
!2 = !{i32 8, !"PIC Level", i32 2}
!3 = !{i32 7, !"PIE Level", i32 2}
!4 = !{i32 7, !"uwtable", i32 2}
